CCS PCM C Compiler, Version 5.025, 9105               30-Jun-19 20:03

               Filename:   C:\Users\ADMIN\Desktop\Hoc_PIC\12_timer\main.lst

               ROM used:   411 words (5%)
                           Largest free fragment is 2048
               RAM used:   26 (7%) at main() level
                           35 (10%) worst case
               Stack used: 2 locations (1 in main + 1 for interrupts)
               Stack size: 8

*
0000:  MOVLW  01
0001:  MOVWF  0A
0002:  GOTO   165
0003:  NOP
0004:  MOVWF  7F
0005:  SWAPF  03,W
0006:  CLRF   03
0007:  MOVWF  21
0008:  MOVF   0A,W
0009:  MOVWF  20
000A:  CLRF   0A
000B:  MOVF   04,W
000C:  MOVWF  22
000D:  MOVF   77,W
000E:  MOVWF  23
000F:  MOVF   78,W
0010:  MOVWF  24
0011:  MOVF   79,W
0012:  MOVWF  25
0013:  MOVF   7A,W
0014:  MOVWF  26
0015:  BCF    03.7
0016:  BCF    03.5
0017:  BTFSS  0B.5
0018:  GOTO   01B
0019:  BTFSC  0B.2
001A:  GOTO   02C
001B:  MOVF   22,W
001C:  MOVWF  04
001D:  MOVF   23,W
001E:  MOVWF  77
001F:  MOVF   24,W
0020:  MOVWF  78
0021:  MOVF   25,W
0022:  MOVWF  79
0023:  MOVF   26,W
0024:  MOVWF  7A
0025:  MOVF   20,W
0026:  MOVWF  0A
0027:  SWAPF  21,W
0028:  MOVWF  03
0029:  SWAPF  7F,F
002A:  SWAPF  7F,W
002B:  RETFIE
002C:  BCF    0A.3
002D:  BCF    0A.4
002E:  GOTO   02F
.................... #include <main.h> 
.................... #include <16F877A.h> 
.................... //////////// Standard Header file for the PIC16F877A device //////////////// 
.................... /////////////////////////////////////////////////////////////////////////// 
.................... ////        (C) Copyright 1996, 2013 Custom Computer Services          //// 
.................... //// This source code may only be used by licensed users of the CCS C  //// 
.................... //// compiler.  This source code may only be distributed to other      //// 
.................... //// licensed users of the CCS C compiler.  No other use, reproduction //// 
.................... //// or distribution is permitted without written permission.          //// 
.................... //// Derivative programs created using this software in object code    //// 
.................... //// form are not restricted in any way.                               //// 
.................... /////////////////////////////////////////////////////////////////////////// 
.................... #device PIC16F877A 
*
004E:  CLRF   78
004F:  CLRF   79
0050:  CLRF   77
0051:  CLRF   7A
0052:  MOVF   3C,W
0053:  BTFSS  03.2
0054:  GOTO   058
0055:  MOVF   3B,W
0056:  BTFSC  03.2
0057:  GOTO   072
0058:  MOVLW  10
0059:  MOVWF  3D
005A:  BCF    03.0
005B:  RLF    39,F
005C:  RLF    3A,F
005D:  RLF    77,F
005E:  RLF    7A,F
005F:  MOVF   3C,W
0060:  SUBWF  7A,W
0061:  BTFSS  03.2
0062:  GOTO   065
0063:  MOVF   3B,W
0064:  SUBWF  77,W
0065:  BTFSS  03.0
0066:  GOTO   06E
0067:  MOVF   3B,W
0068:  SUBWF  77,F
0069:  BTFSS  03.0
006A:  DECF   7A,F
006B:  MOVF   3C,W
006C:  SUBWF  7A,F
006D:  BSF    03.0
006E:  RLF    78,F
006F:  RLF    79,F
0070:  DECFSZ 3D,F
0071:  GOTO   05A
0072:  RETURN
....................  
.................... #list 
....................  
.................... #device ADC=16 
....................  
.................... #FUSES NOWDT                 	//No Watch Dog Timer 
.................... #FUSES NOBROWNOUT            	//No brownout reset 
.................... #FUSES NOLVP                 	//No low voltage prgming, B3(PIC16) or B5(PIC18) used for I/O 
....................  
.................... #use delay(crystal=20000000) 
0073:  MOVLW  37
0074:  MOVWF  04
0075:  BCF    03.7
0076:  MOVF   00,W
0077:  BTFSC  03.2
0078:  GOTO   086
0079:  MOVLW  06
007A:  MOVWF  78
007B:  CLRF   77
007C:  DECFSZ 77,F
007D:  GOTO   07C
007E:  DECFSZ 78,F
007F:  GOTO   07B
0080:  MOVLW  7B
0081:  MOVWF  77
0082:  DECFSZ 77,F
0083:  GOTO   082
0084:  DECFSZ 00,F
0085:  GOTO   079
0086:  RETURN
....................  
....................  
.................... int8 maled7[10] = {0xC0, 0xF9, 0xA4, 0xB0, 0x99, 0x92, 0x82, 0xF8, 0x80, 0x90}; 
*
0174:  MOVLW  C0
0175:  BCF    03.5
0176:  MOVWF  27
0177:  MOVLW  F9
0178:  MOVWF  28
0179:  MOVLW  A4
017A:  MOVWF  29
017B:  MOVLW  B0
017C:  MOVWF  2A
017D:  MOVLW  99
017E:  MOVWF  2B
017F:  MOVLW  92
0180:  MOVWF  2C
0181:  MOVLW  82
0182:  MOVWF  2D
0183:  MOVLW  F8
0184:  MOVWF  2E
0185:  MOVLW  80
0186:  MOVWF  2F
0187:  MOVLW  90
0188:  MOVWF  30
.................... int16 count_isr=0; 
.................... int16 count=0; 
.................... void hienSoTangDan(int16 sotang) 
.................... {   
....................          output_low(PIN_A4); 
*
0087:  BSF    03.5
0088:  BCF    05.4
0089:  BCF    03.5
008A:  BCF    05.4
....................          output_high(PIN_E0); 
008B:  BSF    03.5
008C:  BCF    09.0
008D:  BCF    03.5
008E:  BSF    09.0
....................          output_high(PIN_E1); 
008F:  BSF    03.5
0090:  BCF    09.1
0091:  BCF    03.5
0092:  BSF    09.1
....................          output_high(PIN_E2); 
0093:  BSF    03.5
0094:  BCF    09.2
0095:  BCF    03.5
0096:  BSF    09.2
....................          output_d(maled7[sotang / 1000]); 
0097:  MOVF   36,W
0098:  MOVWF  3A
0099:  MOVF   35,W
009A:  MOVWF  39
009B:  MOVLW  03
009C:  MOVWF  3C
009D:  MOVLW  E8
009E:  MOVWF  3B
009F:  CALL   04E
00A0:  MOVLW  27
00A1:  ADDWF  78,W
00A2:  MOVWF  04
00A3:  BCF    03.7
00A4:  BTFSC  79.0
00A5:  BSF    03.7
00A6:  MOVF   00,W
00A7:  MOVWF  39
00A8:  BSF    03.5
00A9:  CLRF   08
00AA:  BCF    03.5
00AB:  MOVF   39,W
00AC:  MOVWF  08
....................          delay_ms(5); 
00AD:  MOVLW  05
00AE:  MOVWF  37
00AF:  CALL   073
....................          output_low(PIN_E0); 
00B0:  BSF    03.5
00B1:  BCF    09.0
00B2:  BCF    03.5
00B3:  BCF    09.0
....................          output_high(PIN_A4); 
00B4:  BSF    03.5
00B5:  BCF    05.4
00B6:  BCF    03.5
00B7:  BSF    05.4
....................          output_high(PIN_E1); 
00B8:  BSF    03.5
00B9:  BCF    09.1
00BA:  BCF    03.5
00BB:  BSF    09.1
....................          output_high(PIN_E2); 
00BC:  BSF    03.5
00BD:  BCF    09.2
00BE:  BCF    03.5
00BF:  BSF    09.2
....................          output_d(maled7[(sotang % 1000) / 100]); 
00C0:  MOVF   36,W
00C1:  MOVWF  3A
00C2:  MOVF   35,W
00C3:  MOVWF  39
00C4:  MOVLW  03
00C5:  MOVWF  3C
00C6:  MOVLW  E8
00C7:  MOVWF  3B
00C8:  CALL   04E
00C9:  MOVF   77,W
00CA:  MOVWF  37
00CB:  MOVF   7A,W
00CC:  MOVWF  38
00CD:  MOVWF  3A
00CE:  MOVF   77,W
00CF:  MOVWF  39
00D0:  CLRF   3C
00D1:  MOVLW  64
00D2:  MOVWF  3B
00D3:  CALL   04E
00D4:  MOVLW  27
00D5:  ADDWF  78,W
00D6:  MOVWF  04
00D7:  BCF    03.7
00D8:  BTFSC  79.0
00D9:  BSF    03.7
00DA:  MOVF   00,W
00DB:  MOVWF  39
00DC:  BSF    03.5
00DD:  CLRF   08
00DE:  BCF    03.5
00DF:  MOVF   39,W
00E0:  MOVWF  08
....................          delay_ms(5); 
00E1:  MOVLW  05
00E2:  MOVWF  37
00E3:  CALL   073
....................          output_low(PIN_E1); 
00E4:  BSF    03.5
00E5:  BCF    09.1
00E6:  BCF    03.5
00E7:  BCF    09.1
....................          output_high(PIN_E0); 
00E8:  BSF    03.5
00E9:  BCF    09.0
00EA:  BCF    03.5
00EB:  BSF    09.0
....................          output_high(PIN_A4); 
00EC:  BSF    03.5
00ED:  BCF    05.4
00EE:  BCF    03.5
00EF:  BSF    05.4
....................          output_high(PIN_E2); 
00F0:  BSF    03.5
00F1:  BCF    09.2
00F2:  BCF    03.5
00F3:  BSF    09.2
....................          output_d(maled7[((sotang % 1000) % 100) / 10]); 
00F4:  MOVF   36,W
00F5:  MOVWF  3A
00F6:  MOVF   35,W
00F7:  MOVWF  39
00F8:  MOVLW  03
00F9:  MOVWF  3C
00FA:  MOVLW  E8
00FB:  MOVWF  3B
00FC:  CALL   04E
00FD:  MOVF   77,W
00FE:  MOVWF  37
00FF:  MOVF   7A,W
0100:  MOVWF  38
0101:  MOVWF  3A
0102:  MOVF   77,W
0103:  MOVWF  39
0104:  CLRF   3C
0105:  MOVLW  64
0106:  MOVWF  3B
0107:  CALL   04E
0108:  MOVF   77,W
0109:  MOVWF  37
010A:  MOVF   7A,W
010B:  MOVWF  38
010C:  MOVWF  3A
010D:  MOVF   77,W
010E:  MOVWF  39
010F:  CLRF   3C
0110:  MOVLW  0A
0111:  MOVWF  3B
0112:  CALL   04E
0113:  MOVLW  27
0114:  ADDWF  78,W
0115:  MOVWF  04
0116:  BCF    03.7
0117:  BTFSC  79.0
0118:  BSF    03.7
0119:  MOVF   00,W
011A:  MOVWF  39
011B:  BSF    03.5
011C:  CLRF   08
011D:  BCF    03.5
011E:  MOVF   39,W
011F:  MOVWF  08
....................          delay_ms(5); 
0120:  MOVLW  05
0121:  MOVWF  37
0122:  CALL   073
....................          output_low(PIN_E2); 
0123:  BSF    03.5
0124:  BCF    09.2
0125:  BCF    03.5
0126:  BCF    09.2
....................          output_high(PIN_E0); 
0127:  BSF    03.5
0128:  BCF    09.0
0129:  BCF    03.5
012A:  BSF    09.0
....................          output_high(PIN_E1); 
012B:  BSF    03.5
012C:  BCF    09.1
012D:  BCF    03.5
012E:  BSF    09.1
....................          output_high(PIN_A4); 
012F:  BSF    03.5
0130:  BCF    05.4
0131:  BCF    03.5
0132:  BSF    05.4
....................          output_d(maled7[((sotang % 1000) % 100) % 10]); 
0133:  MOVF   36,W
0134:  MOVWF  3A
0135:  MOVF   35,W
0136:  MOVWF  39
0137:  MOVLW  03
0138:  MOVWF  3C
0139:  MOVLW  E8
013A:  MOVWF  3B
013B:  CALL   04E
013C:  MOVF   77,W
013D:  MOVWF  37
013E:  MOVF   7A,W
013F:  MOVWF  38
0140:  MOVWF  3A
0141:  MOVF   77,W
0142:  MOVWF  39
0143:  CLRF   3C
0144:  MOVLW  64
0145:  MOVWF  3B
0146:  CALL   04E
0147:  MOVF   77,W
0148:  MOVWF  37
0149:  MOVF   7A,W
014A:  MOVWF  38
014B:  MOVWF  3A
014C:  MOVF   77,W
014D:  MOVWF  39
014E:  CLRF   3C
014F:  MOVLW  0A
0150:  MOVWF  3B
0151:  CALL   04E
0152:  MOVLW  27
0153:  ADDWF  77,W
0154:  MOVWF  04
0155:  BCF    03.7
0156:  BTFSC  7A.0
0157:  BSF    03.7
0158:  MOVF   00,W
0159:  MOVWF  39
015A:  BSF    03.5
015B:  CLRF   08
015C:  BCF    03.5
015D:  MOVF   39,W
015E:  MOVWF  08
....................          delay_ms(5); 
015F:  MOVLW  05
0160:  MOVWF  37
0161:  CALL   073
0162:  BCF    0A.3
0163:  BCF    0A.4
0164:  GOTO   199 (RETURN)
.................... } 
.................... void main() 
0165:  MOVF   03,W
0166:  ANDLW  1F
0167:  MOVWF  03
0168:  CLRF   32
0169:  CLRF   31
016A:  CLRF   34
016B:  CLRF   33
016C:  BSF    03.5
016D:  BSF    1F.0
016E:  BSF    1F.1
016F:  BSF    1F.2
0170:  BCF    1F.3
0171:  MOVLW  07
0172:  MOVWF  1C
0173:  BCF    03.7
.................... { 
....................    setup_timer_0(T0_INTERNAL | T0_DIV_32); // thiet lap timer 0 là hoac cua 2 cai sau 
*
0189:  BSF    03.5
018A:  MOVF   01,W
018B:  ANDLW  C0
018C:  IORLW  04
018D:  MOVWF  01
....................                                            // clock nôi: T0_INTERNAL (dòng 152) -> xung là 20M/4 = 5MHz = 5000KHz 
....................                                            // chê dô chia 32 (dong 161) tuc timer 0 dem tù 0 -> 256, moi 1 lan tang 1 don vi mat khoang thoi gian là 32/5000(ms) 
....................    set_timer0(61);                         // cài dat timer 0 dém tu 61 -> 256 -> timer 0 se dém trong khoang thoi gian 32/5000(ms) * (256 - 61) = 1,248 ms  
018E:  MOVLW  3D
018F:  BCF    03.5
0190:  MOVWF  01
....................    enable_interrupts(INT_TIMER0);          // enable ngat tràn timer 0 
0191:  BSF    0B.5
....................    enable_interrupts(GLOBAL);              // enable ngat toan cuc 
0192:  MOVLW  C0
0193:  IORWF  0B,F
....................    while(TRUE) 
....................    { 
....................       //TODO: User Code 
....................       hienSoTangDan(count);                // tang len 1 don vi sau 0,1248 s 
0194:  MOVF   34,W
0195:  MOVWF  36
0196:  MOVF   33,W
0197:  MOVWF  35
0198:  GOTO   087
0199:  GOTO   194
....................    } 
.................... } 
.................... #INT_TIMER0 
.................... void timer0_isr(void)                      // ham nay tu dong dc goi khi timer 0 xay ra tràn (tuc su kien ngat) 
019A:  SLEEP
.................... { 
....................    set_timer0(61);                         // vì timer 0 se tiêp tuc dem sau khi su kien ngat xay ra nên dê timer 0 dém trong khoang thoi gian nhu cu (1,248 ms), can cau lenh dòng này de cai dat timer 0 dem tu 61 -> 256 
*
002F:  MOVLW  3D
0030:  MOVWF  01
....................    count_isr++; 
0031:  INCF   31,F
0032:  BTFSC  03.2
0033:  INCF   32,F
....................    if(count_isr == 100)                    // khi timer 0 dem tràn 100 lân (túc sau 100 * 1,248ms = 0,1248s), sô duoc hiên thi se tang 1 don vi  
0034:  MOVF   31,W
0035:  SUBLW  64
0036:  BTFSS  03.2
0037:  GOTO   040
0038:  MOVF   32,F
0039:  BTFSS  03.2
003A:  GOTO   040
....................    { 
....................       count++; 
003B:  INCF   33,F
003C:  BTFSC  03.2
003D:  INCF   34,F
....................       count_isr = 0; 
003E:  CLRF   32
003F:  CLRF   31
....................    } 
....................    if(count == 10000) 
0040:  MOVF   33,W
0041:  SUBLW  10
0042:  BTFSS  03.2
0043:  GOTO   04A
0044:  MOVF   34,W
0045:  SUBLW  27
0046:  BTFSS  03.2
0047:  GOTO   04A
....................    count = 0; 
0048:  CLRF   34
0049:  CLRF   33
004A:  BCF    0B.2
004B:  BCF    0A.3
004C:  BCF    0A.4
004D:  GOTO   01B
.................... } 

Configuration Fuses:
   Word  1: 3F32   HS NOWDT PUT NOBROWNOUT NOLVP NOCPD NOWRT NODEBUG NOPROTECT
